target datalayout = "e-m:e-p270:32:32-p271:32:32-p272:64:64-i64:64-i128:128-f80:128-n8:16:32:64-S128"
target triple = "x86_64-pc-linux-gnu"

%struct.lua_Debug = type { i32, ptr, ptr, ptr, ptr, i32, i32, i32, i32, [60 x i8], i32 }

@.str.24 = private unnamed_addr constant [6 x i8] c"flnSu\00", align 1
@.str.25 = private unnamed_addr constant [4 x i8] c">%s\00", align 1
@.str.26 = private unnamed_addr constant [27 x i8] c"function or level expected\00", align 1
@.str.27 = private unnamed_addr constant [15 x i8] c"invalid option\00", align 1
@.str.28 = private unnamed_addr constant [7 x i8] c"source\00", align 1
@.str.29 = private unnamed_addr constant [10 x i8] c"short_src\00", align 1
@.str.30 = private unnamed_addr constant [12 x i8] c"linedefined\00", align 1
@.str.31 = private unnamed_addr constant [16 x i8] c"lastlinedefined\00", align 1
@.str.32 = private unnamed_addr constant [5 x i8] c"what\00", align 1
@.str.33 = private unnamed_addr constant [12 x i8] c"currentline\00", align 1
@.str.34 = private unnamed_addr constant [5 x i8] c"nups\00", align 1
@.str.35 = private unnamed_addr constant [5 x i8] c"name\00", align 1
@.str.36 = private unnamed_addr constant [9 x i8] c"namewhat\00", align 1
@.str.37 = private unnamed_addr constant [12 x i8] c"activelines\00", align 1
@.str.38 = private unnamed_addr constant [5 x i8] c"func\00", align 1

; Function Attrs: nounwind uwtable
define internal void @treatstackoption(ptr noundef %0, ptr noundef %1, ptr noundef %2) #0 {
  %4 = alloca ptr, align 8
  %5 = alloca ptr, align 8
  %6 = alloca ptr, align 8
  store ptr %0, ptr %4, align 8, !tbaa !4
  store ptr %1, ptr %5, align 8, !tbaa !4
  store ptr %2, ptr %6, align 8, !tbaa !14
  %7 = load ptr, ptr %4, align 8, !tbaa !4
  %8 = load ptr, ptr %5, align 8, !tbaa !4
  %9 = icmp eq ptr %7, %8
  br i1 %9, label %10, label %13

10:                                               ; preds = %3
  %11 = load ptr, ptr %4, align 8, !tbaa !4
  call void @lua_pushvalue(ptr noundef %11, i32 noundef -2)
  %12 = load ptr, ptr %4, align 8, !tbaa !4
  call void @lua_remove(ptr noundef %12, i32 noundef -3)
  br label %16

13:                                               ; preds = %3
  %14 = load ptr, ptr %5, align 8, !tbaa !4
  %15 = load ptr, ptr %4, align 8, !tbaa !4
  call void @lua_xmove(ptr noundef %14, ptr noundef %15, i32 noundef 1)
  br label %16

16:                                               ; preds = %13, %10
  %17 = load ptr, ptr %4, align 8, !tbaa !4
  %18 = load ptr, ptr %6, align 8, !tbaa !14
  call void @lua_setfield(ptr noundef %17, i32 noundef -2, ptr noundef %18)
  ret void
}

; Function Attrs: nounwind uwtable
define internal void @settabsi(ptr noundef %0, ptr noundef %1, i32 noundef %2) #0 {
  %4 = alloca ptr, align 8
  %5 = alloca ptr, align 8
  %6 = alloca i32, align 4
  store ptr %0, ptr %4, align 8, !tbaa !4
  store ptr %1, ptr %5, align 8, !tbaa !14
  store i32 %2, ptr %6, align 4, !tbaa !11
  %7 = load ptr, ptr %4, align 8, !tbaa !4
  %8 = load i32, ptr %6, align 4, !tbaa !11
  %9 = sext i32 %8 to i64
  call void @lua_pushinteger(ptr noundef %7, i64 noundef %9)
  %10 = load ptr, ptr %4, align 8, !tbaa !4
  %11 = load ptr, ptr %5, align 8, !tbaa !14
  call void @lua_setfield(ptr noundef %10, i32 noundef -2, ptr noundef %11)
  ret void
}

; Function Attrs: nounwind uwtable
define internal void @settabss(ptr noundef %0, ptr noundef %1, ptr noundef %2) #0 {
  %4 = alloca ptr, align 8
  %5 = alloca ptr, align 8
  %6 = alloca ptr, align 8
  store ptr %0, ptr %4, align 8, !tbaa !4
  store ptr %1, ptr %5, align 8, !tbaa !14
  store ptr %2, ptr %6, align 8, !tbaa !14
  %7 = load ptr, ptr %4, align 8, !tbaa !4
  %8 = load ptr, ptr %6, align 8, !tbaa !14
  call void @lua_pushstring(ptr noundef %7, ptr noundef %8)
  %9 = load ptr, ptr %4, align 8, !tbaa !4
  %10 = load ptr, ptr %5, align 8, !tbaa !14
  call void @lua_setfield(ptr noundef %9, i32 noundef -2, ptr noundef %10)
  ret void
}

; Function Attrs: nounwind uwtable
define internal ptr @getthread(ptr noundef %0, ptr noundef %1) #0 {
  %3 = alloca ptr, align 8
  %4 = alloca ptr, align 8
  %5 = alloca ptr, align 8
  store ptr %0, ptr %4, align 8, !tbaa !4
  store ptr %1, ptr %5, align 8, !tbaa !29
  %6 = load ptr, ptr %4, align 8, !tbaa !4
  %7 = call i32 @lua_type(ptr noundef %6, i32 noundef 1)
  %8 = icmp eq i32 %7, 8
  br i1 %8, label %9, label %13

9:                                                ; preds = %2
  %10 = load ptr, ptr %5, align 8, !tbaa !29
  store i32 1, ptr %10, align 4, !tbaa !11
  %11 = load ptr, ptr %4, align 8, !tbaa !4
  %12 = call ptr @lua_tothread(ptr noundef %11, i32 noundef 1)
  store ptr %12, ptr %3, align 8
  br label %16

13:                                               ; preds = %2
  %14 = load ptr, ptr %5, align 8, !tbaa !29
  store i32 0, ptr %14, align 4, !tbaa !11
  %15 = load ptr, ptr %4, align 8, !tbaa !4
  store ptr %15, ptr %3, align 8
  br label %16

16:                                               ; preds = %13, %9
  %17 = load ptr, ptr %3, align 8
  ret ptr %17
}

; Function Attrs: nounwind uwtable
define internal i32 @db_getinfo(ptr noundef %0) #0 {
  %2 = alloca i32, align 4
  %3 = alloca ptr, align 8
  %4 = alloca %struct.lua_Debug, align 8
  %5 = alloca i32, align 4
  %6 = alloca ptr, align 8
  %7 = alloca ptr, align 8
  %8 = alloca i32, align 4
  store ptr %0, ptr %3, align 8, !tbaa !4
  call void @llvm.lifetime.start.p0(i64 120, ptr %4) #4
  call void @llvm.lifetime.start.p0(i64 4, ptr %5) #4
  call void @llvm.lifetime.start.p0(i64 8, ptr %6) #4
  %9 = load ptr, ptr %3, align 8, !tbaa !4
  %10 = call ptr @getthread(ptr noundef %9, ptr noundef %5)
  store ptr %10, ptr %6, align 8, !tbaa !4
  call void @llvm.lifetime.start.p0(i64 8, ptr %7) #4
  %11 = load ptr, ptr %3, align 8, !tbaa !4
  %12 = load i32, ptr %5, align 4, !tbaa !11
  %13 = add nsw i32 %12, 2
  %14 = call ptr @luaL_optlstring(ptr noundef %11, i32 noundef %13, ptr noundef @.str.24, ptr noundef null)
  store ptr %14, ptr %7, align 8, !tbaa !14
  %15 = load ptr, ptr %3, align 8, !tbaa !4
  %16 = load i32, ptr %5, align 4, !tbaa !11
  %17 = add nsw i32 %16, 1
  %18 = call i32 @lua_isnumber(ptr noundef %15, i32 noundef %17)
  %19 = icmp ne i32 %18, 0
  br i1 %19, label %20, label %32

20:                                               ; preds = %1
  %21 = load ptr, ptr %6, align 8, !tbaa !4
  %22 = load ptr, ptr %3, align 8, !tbaa !4
  %23 = load i32, ptr %5, align 4, !tbaa !11
  %24 = add nsw i32 %23, 1
  %25 = call i64 @lua_tointeger(ptr noundef %22, i32 noundef %24)
  %26 = trunc i64 %25 to i32
  %27 = call i32 @lua_getstack(ptr noundef %21, i32 noundef %26, ptr noundef %4)
  %28 = icmp ne i32 %27, 0
  br i1 %28, label %31, label %29

29:                                               ; preds = %20
  %30 = load ptr, ptr %3, align 8, !tbaa !4
  call void @lua_pushnil(ptr noundef %30)
  store i32 1, ptr %2, align 4
  store i32 1, ptr %8, align 4
  br label %128

31:                                               ; preds = %20
  br label %55

32:                                               ; preds = %1
  %33 = load ptr, ptr %3, align 8, !tbaa !4
  %34 = load i32, ptr %5, align 4, !tbaa !11
  %35 = add nsw i32 %34, 1
  %36 = call i32 @lua_type(ptr noundef %33, i32 noundef %35)
  %37 = icmp eq i32 %36, 6
  br i1 %37, label %38, label %49

38:                                               ; preds = %32
  %39 = load ptr, ptr %3, align 8, !tbaa !4
  %40 = load ptr, ptr %7, align 8, !tbaa !14
  %41 = call ptr (ptr, ptr, ...) @lua_pushfstring(ptr noundef %39, ptr noundef @.str.25, ptr noundef %40)
  %42 = load ptr, ptr %3, align 8, !tbaa !4
  %43 = call ptr @lua_tolstring(ptr noundef %42, i32 noundef -1, ptr noundef null)
  store ptr %43, ptr %7, align 8, !tbaa !14
  %44 = load ptr, ptr %3, align 8, !tbaa !4
  %45 = load i32, ptr %5, align 4, !tbaa !11
  %46 = add nsw i32 %45, 1
  call void @lua_pushvalue(ptr noundef %44, i32 noundef %46)
  %47 = load ptr, ptr %3, align 8, !tbaa !4
  %48 = load ptr, ptr %6, align 8, !tbaa !4
  call void @lua_xmove(ptr noundef %47, ptr noundef %48, i32 noundef 1)
  br label %54

49:                                               ; preds = %32
  %50 = load ptr, ptr %3, align 8, !tbaa !4
  %51 = load i32, ptr %5, align 4, !tbaa !11
  %52 = add nsw i32 %51, 1
  %53 = call i32 @luaL_argerror(ptr noundef %50, i32 noundef %52, ptr noundef @.str.26)
  store i32 %53, ptr %2, align 4
  store i32 1, ptr %8, align 4
  br label %128

54:                                               ; preds = %38
  br label %55

55:                                               ; preds = %54, %31
  %56 = load ptr, ptr %6, align 8, !tbaa !4
  %57 = load ptr, ptr %7, align 8, !tbaa !14
  %58 = call i32 @lua_getinfo(ptr noundef %56, ptr noundef %57, ptr noundef %4)
  %59 = icmp ne i32 %58, 0
  br i1 %59, label %65, label %60

60:                                               ; preds = %55
  %61 = load ptr, ptr %3, align 8, !tbaa !4
  %62 = load i32, ptr %5, align 4, !tbaa !11
  %63 = add nsw i32 %62, 2
  %64 = call i32 @luaL_argerror(ptr noundef %61, i32 noundef %63, ptr noundef @.str.27)
  store i32 %64, ptr %2, align 4
  store i32 1, ptr %8, align 4
  br label %128

65:                                               ; preds = %55
  %66 = load ptr, ptr %3, align 8, !tbaa !4
  call void @lua_createtable(ptr noundef %66, i32 noundef 0, i32 noundef 2)
  %67 = load ptr, ptr %7, align 8, !tbaa !14
  %68 = call ptr @strchr(ptr noundef %67, i32 noundef 83) #5
  %69 = icmp ne ptr %68, null
  br i1 %69, label %70, label %86

70:                                               ; preds = %65
  %71 = load ptr, ptr %3, align 8, !tbaa !4
  %72 = getelementptr inbounds nuw %struct.lua_Debug, ptr %4, i32 0, i32 4
  %73 = load ptr, ptr %72, align 8, !tbaa !16
  call void @settabss(ptr noundef %71, ptr noundef @.str.28, ptr noundef %73)
  %74 = load ptr, ptr %3, align 8, !tbaa !4
  %75 = getelementptr inbounds nuw %struct.lua_Debug, ptr %4, i32 0, i32 9
  %76 = getelementptr inbounds [60 x i8], ptr %75, i64 0, i64 0
  call void @settabss(ptr noundef %74, ptr noundef @.str.29, ptr noundef %76)
  %77 = load ptr, ptr %3, align 8, !tbaa !4
  %78 = getelementptr inbounds nuw %struct.lua_Debug, ptr %4, i32 0, i32 7
  %79 = load i32, ptr %78, align 8, !tbaa !18
  call void @settabsi(ptr noundef %77, ptr noundef @.str.30, i32 noundef %79)
  %80 = load ptr, ptr %3, align 8, !tbaa !4
  %81 = getelementptr inbounds nuw %struct.lua_Debug, ptr %4, i32 0, i32 8
  %82 = load i32, ptr %81, align 4, !tbaa !19
  call void @settabsi(ptr noundef %80, ptr noundef @.str.31, i32 noundef %82)
  %83 = load ptr, ptr %3, align 8, !tbaa !4
  %84 = getelementptr inbounds nuw %struct.lua_Debug, ptr %4, i32 0, i32 3
  %85 = load ptr, ptr %84, align 8, !tbaa !20
  call void @settabss(ptr noundef %83, ptr noundef @.str.32, ptr noundef %85)
  br label %86

86:                                               ; preds = %70, %65
  %87 = load ptr, ptr %7, align 8, !tbaa !14
  %88 = call ptr @strchr(ptr noundef %87, i32 noundef 108) #5
  %89 = icmp ne ptr %88, null
  br i1 %89, label %90, label %94

90:                                               ; preds = %86
  %91 = load ptr, ptr %3, align 8, !tbaa !4
  %92 = getelementptr inbounds nuw %struct.lua_Debug, ptr %4, i32 0, i32 5
  %93 = load i32, ptr %92, align 8, !tbaa !21
  call void @settabsi(ptr noundef %91, ptr noundef @.str.33, i32 noundef %93)
  br label %94

94:                                               ; preds = %90, %86
  %95 = load ptr, ptr %7, align 8, !tbaa !14
  %96 = call ptr @strchr(ptr noundef %95, i32 noundef 117) #5
  %97 = icmp ne ptr %96, null
  br i1 %97, label %98, label %102

98:                                               ; preds = %94
  %99 = load ptr, ptr %3, align 8, !tbaa !4
  %100 = getelementptr inbounds nuw %struct.lua_Debug, ptr %4, i32 0, i32 6
  %101 = load i32, ptr %100, align 4, !tbaa !22
  call void @settabsi(ptr noundef %99, ptr noundef @.str.34, i32 noundef %101)
  br label %102

102:                                              ; preds = %98, %94
  %103 = load ptr, ptr %7, align 8, !tbaa !14
  %104 = call ptr @strchr(ptr noundef %103, i32 noundef 110) #5
  %105 = icmp ne ptr %104, null
  br i1 %105, label %106, label %113

106:                                              ; preds = %102
  %107 = load ptr, ptr %3, align 8, !tbaa !4
  %108 = getelementptr inbounds nuw %struct.lua_Debug, ptr %4, i32 0, i32 1
  %109 = load ptr, ptr %108, align 8, !tbaa !23
  call void @settabss(ptr noundef %107, ptr noundef @.str.35, ptr noundef %109)
  %110 = load ptr, ptr %3, align 8, !tbaa !4
  %111 = getelementptr inbounds nuw %struct.lua_Debug, ptr %4, i32 0, i32 2
  %112 = load ptr, ptr %111, align 8, !tbaa !24
  call void @settabss(ptr noundef %110, ptr noundef @.str.36, ptr noundef %112)
  br label %113

113:                                              ; preds = %106, %102
  %114 = load ptr, ptr %7, align 8, !tbaa !14
  %115 = call ptr @strchr(ptr noundef %114, i32 noundef 76) #5
  %116 = icmp ne ptr %115, null
  br i1 %116, label %117, label %120

117:                                              ; preds = %113
  %118 = load ptr, ptr %3, align 8, !tbaa !4
  %119 = load ptr, ptr %6, align 8, !tbaa !4
  call void @treatstackoption(ptr noundef %118, ptr noundef %119, ptr noundef @.str.37)
  br label %120

120:                                              ; preds = %117, %113
  %121 = load ptr, ptr %7, align 8, !tbaa !14
  %122 = call ptr @strchr(ptr noundef %121, i32 noundef 102) #5
  %123 = icmp ne ptr %122, null
  br i1 %123, label %124, label %127

124:                                              ; preds = %120
  %125 = load ptr, ptr %3, align 8, !tbaa !4
  %126 = load ptr, ptr %6, align 8, !tbaa !4
  call void @treatstackoption(ptr noundef %125, ptr noundef %126, ptr noundef @.str.38)
  br label %127

127:                                              ; preds = %124, %120
  store i32 1, ptr %2, align 4
  store i32 1, ptr %8, align 4
  br label %128

128:                                              ; preds = %127, %60, %49, %29
  call void @llvm.lifetime.end.p0(i64 8, ptr %7) #4
  call void @llvm.lifetime.end.p0(i64 8, ptr %6) #4
  call void @llvm.lifetime.end.p0(i64 4, ptr %5) #4
  call void @llvm.lifetime.end.p0(i64 120, ptr %4) #4
  %129 = load i32, ptr %2, align 4
  ret i32 %129
}