; Function Attrs: nounwind uwtable
define internal i32 @db_getinfo(ptr noundef %0) #0 {
  %2 = alloca %struct.lua_Debug, align 8
  call void @llvm.lifetime.start.p0(i64 120, ptr nonnull %2) #8
  %3 = tail call i32 @lua_type(ptr noundef %0, i32 noundef 1) #8
  %4 = icmp eq i32 %3, 8
  br i1 %4, label %5, label %getthread.exit

5:                                                ; preds = %1
  %6 = tail call ptr @lua_tothread(ptr noundef %0, i32 noundef 1) #8
  br label %getthread.exit

getthread.exit:                                   ; preds = %1, %5
  %.053 = phi i32 [ 1, %5 ], [ 0, %1 ]
  %.0.i = phi ptr [ %6, %5 ], [ %0, %1 ]
  %7 = or disjoint i32 %.053, 2
  %8 = tail call ptr @luaL_optlstring(ptr noundef %0, i32 noundef %7, ptr noundef nonnull @.str.24, ptr noundef null) #8
  %9 = add nuw nsw i32 %.053, 1
  %10 = tail call i32 @lua_isnumber(ptr noundef %0, i32 noundef %9) #8
  %.not = icmp eq i32 %10, 0
  br i1 %.not, label %16, label %11

11:                                               ; preds = %getthread.exit
  %12 = tail call i64 @lua_tointeger(ptr noundef %0, i32 noundef %9) #8
  %13 = trunc i64 %12 to i32
  %14 = call i32 @lua_getstack(ptr noundef %.0.i, i32 noundef %13, ptr noundef nonnull %2) #8
  %.not38 = icmp eq i32 %14, 0
  br i1 %.not38, label %15, label %24

15:                                               ; preds = %11
  call void @lua_pushnil(ptr noundef %0) #8
  br label %73

16:                                               ; preds = %getthread.exit
  %17 = tail call i32 @lua_type(ptr noundef %0, i32 noundef %9) #8
  %18 = icmp eq i32 %17, 6
  br i1 %18, label %19, label %22

19:                                               ; preds = %16
  %20 = tail call ptr (ptr, ptr, ...) @lua_pushfstring(ptr noundef %0, ptr noundef nonnull @.str.25, ptr noundef %8) #8
  %21 = tail call ptr @lua_tolstring(ptr noundef %0, i32 noundef -1, ptr noundef null) #8
  tail call void @lua_pushvalue(ptr noundef %0, i32 noundef %9) #8
  tail call void @lua_xmove(ptr noundef %0, ptr noundef %.0.i, i32 noundef 1) #8
  br label %24

22:                                               ; preds = %16
  %23 = tail call i32 @luaL_argerror(ptr noundef %0, i32 noundef %9, ptr noundef nonnull @.str.26) #8
  br label %73

24:                                               ; preds = %11, %19
  %.0 = phi ptr [ %8, %11 ], [ %21, %19 ]
  %25 = call i32 @lua_getinfo(ptr noundef %.0.i, ptr noundef %.0, ptr noundef nonnull %2) #8
  %.not39 = icmp eq i32 %25, 0
  br i1 %.not39, label %26, label %28

26:                                               ; preds = %24
  %27 = call i32 @luaL_argerror(ptr noundef %0, i32 noundef %7, ptr noundef nonnull @.str.27) #8
  br label %73

28:                                               ; preds = %24
  call void @lua_createtable(ptr noundef %0, i32 noundef 0, i32 noundef 2) #8
  %29 = call ptr @strchr(ptr noundef nonnull dereferenceable(1) %.0, i32 noundef 83) #10
  %.not40 = icmp eq ptr %29, null
  br i1 %.not40, label %42, label %30

30:                                               ; preds = %28
  %31 = getelementptr inbounds nuw i8, ptr %2, i64 32
  %32 = load ptr, ptr %31, align 8, !tbaa !10
  call void @lua_pushstring(ptr noundef %0, ptr noundef %32) #8
  call void @lua_setfield(ptr noundef %0, i32 noundef -2, ptr noundef nonnull @.str.28) #8
  %33 = getelementptr inbounds nuw i8, ptr %2, i64 56
  call void @lua_pushstring(ptr noundef %0, ptr noundef nonnull %33) #8
  call void @lua_setfield(ptr noundef %0, i32 noundef -2, ptr noundef nonnull @.str.29) #8
  %34 = getelementptr inbounds nuw i8, ptr %2, i64 48
  %35 = load i32, ptr %34, align 8, !tbaa !14
  %36 = sext i32 %35 to i64
  call void @lua_pushinteger(ptr noundef %0, i64 noundef %36) #8
  call void @lua_setfield(ptr noundef %0, i32 noundef -2, ptr noundef nonnull @.str.30) #8
  %37 = getelementptr inbounds nuw i8, ptr %2, i64 52
  %38 = load i32, ptr %37, align 4, !tbaa !15
  %39 = sext i32 %38 to i64
  call void @lua_pushinteger(ptr noundef %0, i64 noundef %39) #8
  call void @lua_setfield(ptr noundef %0, i32 noundef -2, ptr noundef nonnull @.str.31) #8
  %40 = getelementptr inbounds nuw i8, ptr %2, i64 24
  %41 = load ptr, ptr %40, align 8, !tbaa !16
  call void @lua_pushstring(ptr noundef %0, ptr noundef %41) #8
  call void @lua_setfield(ptr noundef %0, i32 noundef -2, ptr noundef nonnull @.str.32) #8
  br label %42

42:                                               ; preds = %30, %28
  %43 = call ptr @strchr(ptr noundef nonnull dereferenceable(1) %.0, i32 noundef 108) #10
  %.not41 = icmp eq ptr %43, null
  br i1 %.not41, label %48, label %44

44:                                               ; preds = %42
  %45 = getelementptr inbounds nuw i8, ptr %2, i64 40
  %46 = load i32, ptr %45, align 8, !tbaa !17
  %47 = sext i32 %46 to i64
  call void @lua_pushinteger(ptr noundef %0, i64 noundef %47) #8
  call void @lua_setfield(ptr noundef %0, i32 noundef -2, ptr noundef nonnull @.str.33) #8
  br label %48

48:                                               ; preds = %44, %42
  %49 = call ptr @strchr(ptr noundef nonnull dereferenceable(1) %.0, i32 noundef 117) #10
  %.not42 = icmp eq ptr %49, null
  br i1 %.not42, label %54, label %50

50:                                               ; preds = %48
  %51 = getelementptr inbounds nuw i8, ptr %2, i64 44
  %52 = load i32, ptr %51, align 4, !tbaa !18
  %53 = sext i32 %52 to i64
  call void @lua_pushinteger(ptr noundef %0, i64 noundef %53) #8
  call void @lua_setfield(ptr noundef %0, i32 noundef -2, ptr noundef nonnull @.str.34) #8
  br label %54

54:                                               ; preds = %50, %48
  %55 = call ptr @strchr(ptr noundef nonnull dereferenceable(1) %.0, i32 noundef 110) #10
  %.not43 = icmp eq ptr %55, null
  br i1 %.not43, label %61, label %56

56:                                               ; preds = %54
  %57 = getelementptr inbounds nuw i8, ptr %2, i64 8
  %58 = load ptr, ptr %57, align 8, !tbaa !19
  call void @lua_pushstring(ptr noundef %0, ptr noundef %58) #8
  call void @lua_setfield(ptr noundef %0, i32 noundef -2, ptr noundef nonnull @.str.35) #8
  %59 = getelementptr inbounds nuw i8, ptr %2, i64 16
  %60 = load ptr, ptr %59, align 8, !tbaa !20
  call void @lua_pushstring(ptr noundef %0, ptr noundef %60) #8
  call void @lua_setfield(ptr noundef %0, i32 noundef -2, ptr noundef nonnull @.str.36) #8
  br label %61

61:                                               ; preds = %56, %54
  %62 = call ptr @strchr(ptr noundef nonnull dereferenceable(1) %.0, i32 noundef 76) #10
  %.not44 = icmp eq ptr %62, null
  br i1 %.not44, label %67, label %63

63:                                               ; preds = %61
  %64 = icmp eq ptr %0, %.0.i
  br i1 %64, label %65, label %66

65:                                               ; preds = %63
  call void @lua_pushvalue(ptr noundef %0, i32 noundef -2) #8
  call void @lua_remove(ptr noundef %0, i32 noundef -3) #8
  br label %treatstackoption.exit

66:                                               ; preds = %63
  call void @lua_xmove(ptr noundef %.0.i, ptr noundef %0, i32 noundef 1) #8
  br label %treatstackoption.exit

treatstackoption.exit:                            ; preds = %65, %66
  call void @lua_setfield(ptr noundef %0, i32 noundef -2, ptr noundef nonnull @.str.37) #8
  br label %67

67:                                               ; preds = %treatstackoption.exit, %61
  %68 = call ptr @strchr(ptr noundef nonnull dereferenceable(1) %.0, i32 noundef 102) #10
  %.not45 = icmp eq ptr %68, null
  br i1 %.not45, label %73, label %69

69:                                               ; preds = %67
  %70 = icmp eq ptr %0, %.0.i
  br i1 %70, label %71, label %72

71:                                               ; preds = %69
  call void @lua_pushvalue(ptr noundef %0, i32 noundef -2) #8
  call void @lua_remove(ptr noundef %0, i32 noundef -3) #8
  br label %treatstackoption.exit46

72:                                               ; preds = %69
  call void @lua_xmove(ptr noundef %.0.i, ptr noundef %0, i32 noundef 1) #8
  br label %treatstackoption.exit46

treatstackoption.exit46:                          ; preds = %71, %72
  call void @lua_setfield(ptr noundef %0, i32 noundef -2, ptr noundef nonnull @.str.38) #8
  br label %73

73:                                               ; preds = %67, %treatstackoption.exit46, %26, %22, %15
  %.037 = phi i32 [ %27, %26 ], [ 1, %15 ], [ %23, %22 ], [ 1, %treatstackoption.exit46 ], [ 1, %67 ]
  call void @llvm.lifetime.end.p0(i64 120, ptr nonnull %2) #8
  ret i32 %.037
}